target datalayout = "e-m:e-p270:32:32-p271:32:32-p272:64:64-i64:64-i128:128-f80:128-n8:16:32:64-S128"
target triple = "x86_64-pc-linux-gnu"

%struct.mbedtls_asn1_buf = type { i32, i64, ptr }
%struct.mbedtls_asn1_named_data = type { %struct.mbedtls_asn1_buf, %struct.mbedtls_asn1_buf, ptr, i8 }

; Function Attrs: mustprogress uwtable
define hidden void @mbedtls_asn1_free_named_data(ptr noundef %0) #2 {
  %2 = alloca ptr, align 8
  store ptr %0, ptr %2, align 8, !tbaa !49
  %3 = load ptr, ptr %2, align 8, !tbaa !49
  %4 = icmp eq ptr %3, null
  br i1 %4, label %5, label %6

5:                                                ; preds = %1
  br label %16

6:                                                ; preds = %1
  %7 = load ptr, ptr %2, align 8, !tbaa !49
  %8 = getelementptr inbounds nuw %struct.mbedtls_asn1_named_data, ptr %7, i32 0, i32 0
  %9 = getelementptr inbounds nuw %struct.mbedtls_asn1_buf, ptr %8, i32 0, i32 2
  %10 = load ptr, ptr %9, align 8, !tbaa !51
  call void @free(ptr noundef %10) #8
  %11 = load ptr, ptr %2, align 8, !tbaa !49
  %12 = getelementptr inbounds nuw %struct.mbedtls_asn1_named_data, ptr %11, i32 0, i32 1
  %13 = getelementptr inbounds nuw %struct.mbedtls_asn1_buf, ptr %12, i32 0, i32 2
  %14 = load ptr, ptr %13, align 8, !tbaa !53
  call void @free(ptr noundef %14) #8
  %15 = load ptr, ptr %2, align 8, !tbaa !49
  call void @mbedtls_platform_zeroize(ptr noundef %15, i64 noundef 64)
  br label %16

16:                                               ; preds = %6, %5
  ret void
}