; Function Attrs: mustprogress uwtable
define hidden void @mbedtls_asn1_free_named_data(ptr noundef %0) local_unnamed_addr #3 {
  %2 = icmp eq ptr %0, null
  br i1 %2, label %8, label %3

3:                                                ; preds = %1
  %4 = getelementptr inbounds nuw i8, ptr %0, i64 16
  %5 = load ptr, ptr %4, align 8, !tbaa !35
  tail call void @free(ptr noundef %5) #11
  %6 = getelementptr inbounds nuw i8, ptr %0, i64 40
  %7 = load ptr, ptr %6, align 8, !tbaa !38
  tail call void @free(ptr noundef %7) #11
  tail call void @mbedtls_platform_zeroize(ptr noundef nonnull %0, i64 noundef 64)
  br label %8

8:                                                ; preds = %1, %3
  ret void
}